; ModuleID = 'source-C-CXX/31/467.c'
source_filename = "source-C-CXX/31/467.c"
target datalayout = "e-m:e-p270:32:32-p271:32:32-p272:64:64-i64:64-f80:128-n8:16:32:64-S128"
target triple = "x86_64-pc-linux-gnu"

@.str = private unnamed_addr constant [3 x i8] c"%d\00", align 1
@.str.1 = private unnamed_addr constant [3 x i8] c"%s\00", align 1

; Function Attrs: nofree nounwind sspstrong uwtable
define dso_local i32 @main() local_unnamed_addr #0 {
  %1 = alloca i32, align 4
  %2 = alloca [100 x i8], align 16
  %3 = alloca [100 x i8], align 16
  %4 = bitcast i32* %1 to i8*
  call void @llvm.lifetime.start.p0i8(i64 4, i8* nonnull %4) #5
  %5 = getelementptr inbounds [100 x i8], [100 x i8]* %2, i64 0, i64 0
  call void @llvm.lifetime.start.p0i8(i64 100, i8* nonnull %5) #5
  %6 = getelementptr inbounds [100 x i8], [100 x i8]* %3, i64 0, i64 0
  call void @llvm.lifetime.start.p0i8(i64 100, i8* nonnull %6) #5
  %7 = call i32 (i8*, ...) @__isoc99_scanf(i8* getelementptr inbounds ([3 x i8], [3 x i8]* @.str, i64 0, i64 0), i32* nonnull %1)
  %8 = load i32, i32* %1, align 4, !tbaa !5
  %9 = icmp slt i32 %8, 1
  br i1 %9, label %53, label %10

10:                                               ; preds = %0, %48
  %11 = phi i32 [ %50, %48 ], [ 1, %0 ]
  %12 = call i32 (i8*, ...) @__isoc99_scanf(i8* getelementptr inbounds ([3 x i8], [3 x i8]* @.str.1, i64 0, i64 0), i8* nonnull %5)
  %13 = call i32 (i8*, ...) @__isoc99_scanf(i8* getelementptr inbounds ([3 x i8], [3 x i8]* @.str.1, i64 0, i64 0), i8* nonnull %6)
  %14 = call i64 @strlen(i8* noundef nonnull %5) #6
  %15 = trunc i64 %14 to i32
  %16 = call i64 @strlen(i8* noundef nonnull %6) #6
  %17 = trunc i64 %16 to i32
  %18 = sub nsw i32 %15, %17
  %19 = icmp sgt i32 %17, 0
  br i1 %19, label %20, label %48

20:                                               ; preds = %10
  %21 = shl i64 %16, 32
  %22 = ashr exact i64 %21, 32
  br label %23

23:                                               ; preds = %20, %46
  %24 = phi i64 [ %22, %20 ], [ %26, %46 ]
  %25 = phi i32 [ %17, %20 ], [ %27, %46 ]
  %26 = add nsw i64 %24, -1
  %27 = add nsw i32 %25, -1
  %28 = add nsw i32 %27, %18
  %29 = sext i32 %28 to i64
  %30 = getelementptr inbounds [100 x i8], [100 x i8]* %2, i64 0, i64 %29
  %31 = load i8, i8* %30, align 1, !tbaa !9
  %32 = getelementptr inbounds [100 x i8], [100 x i8]* %3, i64 0, i64 %26
  %33 = load i8, i8* %32, align 1, !tbaa !9
  %34 = icmp slt i8 %31, %33
  br i1 %34, label %35, label %43

35:                                               ; preds = %23
  %36 = add i8 %31, 58
  %37 = sub i8 %36, %33
  store i8 %37, i8* %30, align 1, !tbaa !9
  %38 = add nsw i32 %28, -1
  %39 = sext i32 %38 to i64
  %40 = getelementptr inbounds [100 x i8], [100 x i8]* %2, i64 0, i64 %39
  %41 = load i8, i8* %40, align 1, !tbaa !9
  %42 = add i8 %41, -1
  store i8 %42, i8* %40, align 1, !tbaa !9
  br label %46

43:                                               ; preds = %23
  %44 = add i8 %31, 48
  %45 = sub i8 %44, %33
  store i8 %45, i8* %30, align 1, !tbaa !9
  br label %46

46:                                               ; preds = %35, %43
  %47 = icmp sgt i64 %24, 1
  br i1 %47, label %23, label %48, !llvm.loop !10

48:                                               ; preds = %46, %10
  %49 = call i32 @puts(i8* nonnull %5)
  %50 = add nuw nsw i32 %11, 1
  %51 = load i32, i32* %1, align 4, !tbaa !5
  %52 = icmp slt i32 %11, %51
  br i1 %52, label %10, label %53, !llvm.loop !12

53:                                               ; preds = %48, %0
  call void @llvm.lifetime.end.p0i8(i64 100, i8* nonnull %6) #5
  call void @llvm.lifetime.end.p0i8(i64 100, i8* nonnull %5) #5
  call void @llvm.lifetime.end.p0i8(i64 4, i8* nonnull %4) #5
  ret i32 0
}

; Function Attrs: argmemonly mustprogress nofree nosync nounwind willreturn
declare void @llvm.lifetime.start.p0i8(i64 immarg, i8* nocapture) #1

; Function Attrs: nofree nounwind
declare noundef i32 @__isoc99_scanf(i8* nocapture noundef readonly, ...) local_unnamed_addr #2

; Function Attrs: argmemonly mustprogress nofree nounwind readonly willreturn
declare i64 @strlen(i8* nocapture) local_unnamed_addr #3

; Function Attrs: argmemonly mustprogress nofree nosync nounwind willreturn
declare void @llvm.lifetime.end.p0i8(i64 immarg, i8* nocapture) #1

; Function Attrs: nofree nounwind
declare noundef i32 @puts(i8* nocapture noundef readonly) local_unnamed_addr #4


!llvm.module.flags = !{!0, !1, !2, !3}
!llvm.ident = !{!4}

!0 = !{i32 1, !"wchar_size", i32 4}
!1 = !{i32 7, !"PIC Level", i32 2}
!2 = !{i32 7, !"PIE Level", i32 2}
!3 = !{i32 7, !"uwtable", i32 1}
!4 = !{!"clang version 13.0.0"}
!5 = !{!6, !6, i64 0}
!6 = !{!"int", !7, i64 0}
!7 = !{!"omnipotent char", !8, i64 0}
!8 = !{!"Simple C/C++ TBAA"}
!9 = !{!7, !7, i64 0}
!10 = distinct !{!10, !11}
!11 = !{!"llvm.loop.mustprogress"}
!12 = distinct !{!12, !11}
